; Function Attrs: mustprogress nounwind uwtable
define internal fastcc void @_ZL17decodeUImmOperandILj8EEN4llvm14MCDisassembler12DecodeStatusERNS0_6MCInstEjlPKS1_(ptr noundef nonnull align 8 dereferenceable(128) %0, i32 noundef %1) unnamed_addr #0 {
  %3 = getelementptr inbounds nuw i8, ptr %0, i64 16
  %4 = tail call noundef i64 @_ZNK4llvm15SmallVectorBaseIjE4sizeEv(ptr noundef nonnull align 8 dereferenceable(16) %3) #10
  %5 = add i64 %4, 1
  %6 = tail call noundef i64 @_ZNK4llvm15SmallVectorBaseIjE8capacityEv(ptr noundef nonnull align 8 dereferenceable(16) %3) #10
  %.not.i.i.i.i = icmp ugt i64 %5, %6
  br i1 %.not.i.i.i.i, label %7, label %_ZN4llvm6MCInst10addOperandENS_9MCOperandE.exit

7:                                                ; preds = %2
  %8 = getelementptr inbounds nuw i8, ptr %0, i64 32
  tail call void @_ZN4llvm15SmallVectorBaseIjE8grow_podEPvmm(ptr noundef nonnull align 8 dereferenceable(16) %3, ptr noundef nonnull %8, i64 noundef %5, i64 noundef 16) #10
  br label %_ZN4llvm6MCInst10addOperandENS_9MCOperandE.exit

_ZN4llvm6MCInst10addOperandENS_9MCOperandE.exit:  ; preds = %2, %7
  %9 = zext i32 %1 to i64
  %10 = load ptr, ptr %3, align 8
  %11 = tail call noundef i64 @_ZNK4llvm15SmallVectorBaseIjE4sizeEv(ptr noundef nonnull align 8 dereferenceable(16) %3) #10
  %12 = getelementptr inbounds %"class.llvm::MCOperand", ptr %10, i64 %11
  store i8 2, ptr %12, align 1
  %.sroa.22.0..sroa_idx.i.i = getelementptr inbounds nuw i8, ptr %12, i64 8
  store i64 %9, ptr %.sroa.22.0..sroa_idx.i.i, align 1
  %13 = tail call noundef i64 @_ZNK4llvm15SmallVectorBaseIjE4sizeEv(ptr noundef nonnull align 8 dereferenceable(16) %3) #10
  %14 = add i64 %13, 1
  tail call void @_ZN4llvm15SmallVectorBaseIjE8set_sizeEm(ptr noundef nonnull align 8 dereferenceable(16) %3, i64 noundef %14) #10
  ret void
}